BL51 BANKED LINKER/LOCATER V6.22.2.0                                                    02/16/2022  14:01:04  PAGE 1


BL51 BANKED LINKER/LOCATER V6.22.2.0, INVOKED BY:
D:\KEILC51  U5\C51\BIN\BL51.EXE .\Objects\main.obj, .\Objects\3231.obj, .\Objects\TM1637.obj, .\Objects\delay.obj TO .\O
>> bjects\DS3231 PRINT (.\Listings\DS3231.m51) RAMSIZE (256)


MEMORY MODEL: SMALL


INPUT MODULES INCLUDED:
  .\Objects\main.obj (MAIN)
  .\Objects\3231.obj (3231)
  .\Objects\TM1637.obj (TM1637)
  .\Objects\delay.obj (DELAY)
  D:\KEILC51  U5\C51\LIB\C51S.LIB (?C_STARTUP)
  D:\KEILC51  U5\C51\LIB\C51S.LIB (?C?SCDIV)
  D:\KEILC51  U5\C51\LIB\C51S.LIB (?C_INIT)


LINK MAP OF MODULE:  .\Objects\DS3231 (MAIN)


            TYPE    BASE      LENGTH    RELOCATION   SEGMENT NAME
            -----------------------------------------------------

            * * * * * * *   D A T A   M E M O R Y   * * * * * * *
            REG     0000H     0008H     ABSOLUTE     "REG BANK 0"
            DATA    0008H     000CH     UNIT         ?DT?MAIN
            DATA    0014H     000CH     UNIT         _DATA_GROUP_
            BIT     0020H.0   0000H.1   UNIT         ?BI?3231
            BIT     0020H.1   0000H.1   UNIT         _BIT_GROUP_
                    0020H.2   0000H.6                *** GAP ***
            DATA    0021H     0007H     UNIT         ?DT?3231
            DATA    0028H     0003H     UNIT         ?DT?_DISPLAY_1SEG?TM1637
            DATA    002BH     0002H     UNIT         ?DT?_WRITE_BYTE?3231
            DATA    002DH     0001H     UNIT         ?DT?_READ_RANDOMTMP?3231
            IDATA   002EH     0001H     UNIT         ?STACK

            * * * * * * *   C O D E   M E M O R Y   * * * * * * *
            CODE    0000H     0003H     ABSOLUTE     
            CODE    0003H     0007H     UNIT         ?PR?IIC_STOP?3231
                    000AH     0001H                  *** GAP ***
            CODE    000BH     0003H     ABSOLUTE     
            CODE    000EH     008CH     UNIT         ?C_C51STARTUP
            CODE    009AH     007FH     UNIT         ?PR?TM0_ISR?MAIN
            CODE    0119H     006FH     UNIT         ?PR?MAIN?MAIN
            CODE    0188H     0049H     UNIT         ?PR?_SENDBYTE?3231
            CODE    01D1H     0031H     UNIT         ?PR?_DISPLAY_4SEG?TM1637
            CODE    0202H     002FH     UNIT         ?PR?_WRITE_BYTE?3231
            CODE    0231H     002DH     UNIT         ?PR?RCVBYTE?3231
            CODE    025EH     002AH     UNIT         ?PR?_I2CWRITEBYTE?TM1637
            CODE    0288H     0025H     UNIT         ?PR?_READ_RANDOM?3231
            CODE    02ADH     0022H     UNIT         ?C?LIB_CODE
            CODE    02CFH     0021H     UNIT         ?PR?_READ_RANDOMTMP?3231
            CODE    02F0H     001EH     UNIT         ?PR?READ_CURRENT?3231
            CODE    030EH     001CH     UNIT         ?PR?_MODIFYTIME?3231
            CODE    032AH     001CH     UNIT         ?PR?_DISPLAY_1SEG?TM1637
            CODE    0346H     0019H     UNIT         ?PR?_HEX2BCD?3231
            CODE    035FH     0018H     UNIT         ?PR?_TM1636_WRITE_DISPLAY?TM1637
BL51 BANKED LINKER/LOCATER V6.22.2.0                                                  02/16/2022  14:01:04  PAGE 2


            CODE    0377H     0016H     UNIT         ?PR?_TM1636_DISCON?TM1637
            CODE    038DH     0015H     UNIT         ?PR?TIMER0INIT?MAIN
            CODE    03A2H     0013H     UNIT         ?C_INITSEG
            CODE    03B5H     0012H     UNIT         ?PR?I2CSTOP?TM1637
            CODE    03C7H     0010H     UNIT         ?PR?I2CASK?TM1637
            CODE    03D7H     0010H     UNIT         ?PR?_TM1636_SET_SEGBIT?TM1637
            CODE    03E7H     000FH     UNIT         ?PR?_BCD2HEX?3231
            CODE    03F6H     000EH     UNIT         ?PR?ACK_I2C?3231
            CODE    0404H     000AH     UNIT         ?PR?IIC_START?3231
            CODE    040EH     000AH     UNIT         ?PR?I2CSTART?TM1637
            CODE    0418H     0006H     UNIT         ?PR?_TM1636_DISPLAY?TM1637
            CODE    041EH     0006H     UNIT         ?PR?DELAY2US?DELAY
            CODE    0424H     0006H     UNIT         ?PR?DELAY5US?DELAY
            CODE    042AH     0005H     UNIT         ?PR?DELAY3US?DELAY



OVERLAY MAP OF MODULE:   .\Objects\DS3231 (MAIN)


SEGMENT                                     BIT_GROUP          DATA_GROUP 
  +--> CALLED SEGMENT                    START    LENGTH     START    LENGTH
----------------------------------------------------------------------------
?PR?TM0_ISR?MAIN                         -----    -----      -----    -----
  +--> ?PR?_DISPLAY_4SEG?TM1637

?PR?_DISPLAY_4SEG?TM1637                 -----    -----      0014H    0005H
  +--> ?PR?_TM1636_WRITE_DISPLAY?TM1637
  +--> ?PR?_TM1636_SET_SEGBIT?TM1637
  +--> ?PR?_TM1636_DISPLAY?TM1637
  +--> ?PR?_TM1636_DISCON?TM1637

?PR?_TM1636_WRITE_DISPLAY?TM1637         -----    -----      0019H    0001H
  +--> ?PR?I2CSTART?TM1637
  +--> ?PR?_I2CWRITEBYTE?TM1637
  +--> ?PR?I2CASK?TM1637
  +--> ?PR?I2CSTOP?TM1637

?PR?I2CSTART?TM1637                      -----    -----      -----    -----
  +--> ?PR?DELAY2US?DELAY

?PR?_I2CWRITEBYTE?TM1637                 -----    -----      001AH    0002H
  +--> ?PR?DELAY3US?DELAY

?PR?I2CASK?TM1637                        -----    -----      -----    -----
  +--> ?PR?DELAY5US?DELAY
  +--> ?PR?DELAY2US?DELAY

?PR?I2CSTOP?TM1637                       -----    -----      -----    -----
  +--> ?PR?DELAY2US?DELAY

?PR?_TM1636_SET_SEGBIT?TM1637            -----    -----      0019H    0001H
  +--> ?PR?I2CSTART?TM1637
  +--> ?PR?_I2CWRITEBYTE?TM1637
  +--> ?PR?I2CASK?TM1637

?PR?_TM1636_DISPLAY?TM1637               -----    -----      -----    -----
BL51 BANKED LINKER/LOCATER V6.22.2.0                                                  02/16/2022  14:01:04  PAGE 3


  +--> ?PR?_I2CWRITEBYTE?TM1637
  +--> ?PR?I2CASK?TM1637

?PR?_TM1636_DISCON?TM1637                -----    -----      0019H    0001H
  +--> ?PR?I2CSTOP?TM1637
  +--> ?PR?I2CSTART?TM1637
  +--> ?PR?_I2CWRITEBYTE?TM1637
  +--> ?PR?I2CASK?TM1637

*** NEW ROOT ***************************************************

?C_C51STARTUP                            -----    -----      -----    -----
  +--> ?PR?MAIN?MAIN
  +--> ?C_INITSEG

?PR?MAIN?MAIN                            -----    -----      -----    -----
  +--> ?PR?TIMER0INIT?MAIN
  +--> ?PR?_READ_RANDOM?3231

?PR?_READ_RANDOM?3231                    -----    -----      001CH    0001H
  +--> ?PR?_SENDBYTE?3231
  +--> ?PR?READ_CURRENT?3231
  +--> ?PR?_BCD2HEX?3231

?PR?_SENDBYTE?3231                       -----    -----      001EH    0002H
  +--> ?PR?IIC_START?3231
  +--> ?PR?DELAY5US?DELAY

?PR?READ_CURRENT?3231                    -----    -----      001DH    0001H
  +--> ?PR?IIC_START?3231
  +--> ?PR?_SENDBYTE?3231
  +--> ?PR?RCVBYTE?3231
  +--> ?PR?ACK_I2C?3231
  +--> ?PR?IIC_STOP?3231

?PR?RCVBYTE?3231                         -----    -----      001EH    0002H
  +--> ?PR?DELAY5US?DELAY

?PR?ACK_I2C?3231                         0020H.1  0000H.1    -----    -----
  +--> ?PR?DELAY5US?DELAY



SYMBOL TABLE OF MODULE:  .\Objects\DS3231 (MAIN)

  VALUE           TYPE          NAME
  ----------------------------------

  -------         MODULE        MAIN
  C:0000H         SYMBOL        _ICE_DUMMY_
  D:0092H         PUBLIC        P1M0
  D:0091H         PUBLIC        P1M1
  D:0080H         PUBLIC        P0
  D:00B2H         PUBLIC        P3M0
  D:0090H         PUBLIC        P1
  D:00B1H         PUBLIC        P3M1
  D:00A0H         PUBLIC        P2
BL51 BANKED LINKER/LOCATER V6.22.2.0                                                  02/16/2022  14:01:04  PAGE 4


  D:00B0H         PUBLIC        P3
  D:00C0H         PUBLIC        P4
  D:00C8H         PUBLIC        P5
  B:00A8H.7       PUBLIC        EA
  D:00E8H         PUBLIC        P6
  D:00F8H         PUBLIC        P7
  D:00A8H         PUBLIC        IE
  D:00B8H         PUBLIC        IP
  D:00D8H         PUBLIC        CCON
  C:0119H         PUBLIC        main
  D:0098H         PUBLIC        SCON
  D:0089H         PUBLIC        TMOD
  D:0088H         PUBLIC        TCON
  D:008EH         PUBLIC        AUXR
  B:00A8H.1       PUBLIC        ET0
  B:0088H.5       PUBLIC        TF0
  C:038DH         PUBLIC        Timer0Init
  D:008CH         PUBLIC        TH0
  D:008AH         PUBLIC        TL0
  D:0008H         PUBLIC        num
  D:0012H         PUBLIC        cp
  B:0088H.4       PUBLIC        TR0
  C:009AH         PUBLIC        TM0_Isr
  D:0013H         PUBLIC        sec_dot
  D:00D0H         PUBLIC        PSW
  -------         PROC          TIMER0INIT
  C:038DH         LINE#         11
  C:038DH         LINE#         12
  C:038DH         LINE#         13
  C:0390H         LINE#         14
  C:0393H         LINE#         15
  C:0396H         LINE#         16
  C:0399H         LINE#         17
  C:039BH         LINE#         18
  C:039DH         LINE#         19
  C:039FH         LINE#         20
  C:03A1H         LINE#         21
  -------         ENDPROC       TIMER0INIT
  -------         PROC          MAIN
  C:0119H         LINE#         23
  C:0119H         LINE#         24
  C:0119H         LINE#         25
  C:011CH         LINE#         26
  C:011FH         LINE#         27
  C:0122H         LINE#         28
  C:0124H         LINE#         29
  C:0127H         LINE#         30
  C:0131H         LINE#         38
  C:0131H         LINE#         39
  C:0131H         LINE#         40
  C:0137H         LINE#         41
  C:0137H         LINE#         42
  C:0139H         LINE#         43
  C:0141H         LINE#         44
  C:0149H         LINE#         45
  C:0151H         LINE#         46
  C:0159H         LINE#         47
BL51 BANKED LINKER/LOCATER V6.22.2.0                                                  02/16/2022  14:01:04  PAGE 5


  C:0161H         LINE#         48
  C:0169H         LINE#         49
  C:0171H         LINE#         50
  C:0171H         LINE#         51
  C:0186H         LINE#         52
  -------         ENDPROC       MAIN
  -------         PROC          TM0_ISR
  C:009AH         LINE#         55
  C:00B7H         LINE#         58
  C:00B9H         LINE#         59
  C:00FEH         LINE#         62
  -------         ENDPROC       TM0_ISR
  -------         ENDMOD        MAIN

  -------         MODULE        3231
  C:0000H         SYMBOL        _ICE_DUMMY_
  D:0080H         PUBLIC        P0
  D:0090H         PUBLIC        P1
  D:00A0H         PUBLIC        P2
  D:00B0H         PUBLIC        P3
  C:0288H         PUBLIC        _read_random
  D:00C0H         PUBLIC        P4
  D:00C8H         PUBLIC        P5
  D:00E8H         PUBLIC        P6
  C:02F0H         PUBLIC        read_current
  D:00F8H         PUBLIC        P7
  D:00A8H         PUBLIC        IE
  D:00B8H         PUBLIC        IP
  C:018DH         PUBLIC        _SendByte
  D:00D8H         PUBLIC        CCON
  D:0021H         PUBLIC        week
  C:03F6H         PUBLIC        Ack_I2C
  B:0020H.0       PUBLIC        ack
  D:0022H         PUBLIC        year
  D:0098H         PUBLIC        SCON
  D:0088H         PUBLIC        TCON
  C:02CFH         PUBLIC        _read_randomTmp
  D:0023H         PUBLIC        sec
  D:0024H         PUBLIC        day
  D:0025H         PUBLIC        hour
  C:0231H         PUBLIC        RcvByte
  C:0202H         PUBLIC        _write_byte
  D:0026H         PUBLIC        min
  C:0404H         PUBLIC        IIC_Start
  D:0027H         PUBLIC        mon
  B:0090H.1       PUBLIC        SDA
  C:0003H         PUBLIC        IIC_Stop
  C:0346H         PUBLIC        _HEX2BCD
  C:03E7H         PUBLIC        _BCD2HEX
  B:0090H.0       PUBLIC        SCL
  D:00D0H         PUBLIC        PSW
  C:030EH         PUBLIC        _ModifyTime
  -------         PROC          IIC_START
  C:0404H         LINE#         12
  C:0404H         LINE#         13
  C:0404H         LINE#         14
  C:0406H         LINE#         15
BL51 BANKED LINKER/LOCATER V6.22.2.0                                                  02/16/2022  14:01:04  PAGE 6


  C:0408H         LINE#         16
  C:040AH         LINE#         17
  C:040BH         LINE#         18
  C:040DH         LINE#         19
  -------         ENDPROC       IIC_START
  -------         PROC          IIC_STOP
  C:0003H         LINE#         24
  C:0003H         LINE#         25
  C:0003H         LINE#         26
  C:0005H         LINE#         27
  C:0007H         LINE#         28
  C:0009H         LINE#         29
  -------         ENDPROC       IIC_STOP
  -------         PROC          _BCD2HEX
  D:0007H         SYMBOL        val
  C:03E7H         LINE#         36
  C:03E7H         LINE#         37
  C:03E7H         LINE#         38
  C:03F5H         LINE#         39
  -------         ENDPROC       _BCD2HEX
  -------         PROC          _HEX2BCD
  D:0007H         SYMBOL        val
  C:0346H         LINE#         41
  C:0346H         LINE#         42
  C:0346H         LINE#         43
  C:035EH         LINE#         44
  -------         ENDPROC       _HEX2BCD
  C:0188H         SYMBOL        L?0037
  -------         PROC          L?0036
  -------         ENDPROC       L?0036
  C:0188H         SYMBOL        L?0037
  -------         PROC          _SENDBYTE
  D:001EH         SYMBOL        c
  -------         DO            
  D:001FH         SYMBOL        BitCnt
  -------         ENDDO         
  C:018DH         LINE#         47
  C:018FH         LINE#         48
  C:018FH         LINE#         50
  C:0191H         LINE#         51
  C:0194H         LINE#         52
  C:0194H         LINE#         53
  C:01A4H         LINE#         54
  C:01A8H         LINE#         56
  C:01AAH         LINE#         57
  C:01ABH         LINE#         58
  C:01ADH         LINE#         59
  C:01B0H         LINE#         60
  C:01B2H         LINE#         61
  C:01BBH         LINE#         62
  C:01BDH         LINE#         63
  C:01BEH         LINE#         64
  C:01C0H         LINE#         65
  C:01C3H         LINE#         66
  C:01C6H         LINE#         67
  C:01CAH         LINE#         69
  C:01CCH         LINE#         70
BL51 BANKED LINKER/LOCATER V6.22.2.0                                                  02/16/2022  14:01:04  PAGE 7


  C:01CEH         LINE#         71
  -------         ENDPROC       _SENDBYTE
  -------         PROC          RCVBYTE
  -------         DO            
  D:001EH         SYMBOL        retc
  D:001FH         SYMBOL        BitCnt
  -------         ENDDO         
  C:0231H         LINE#         74
  C:0231H         LINE#         75
  C:0231H         LINE#         79
  C:0234H         LINE#         80
  C:0236H         LINE#         81
  C:0238H         LINE#         82
  C:0238H         LINE#         83
  C:023AH         LINE#         84
  C:023DH         LINE#         85
  C:023FH         LINE#         86
  C:0242H         LINE#         87
  C:0248H         LINE#         88
  C:024BH         LINE#         89
  C:024DH         LINE#         90
  C:0250H         LINE#         91
  C:0259H         LINE#         92
  C:025BH         LINE#         93
  C:025DH         LINE#         94
  -------         ENDPROC       RCVBYTE
  -------         PROC          ACK_I2C
  B:0020H.1       SYMBOL        a
  C:03F6H         LINE#         96
  C:03F6H         LINE#         97
  C:03F6H         LINE#         98
  C:03FAH         LINE#         99
  C:03FCH         LINE#         100
  C:03FFH         LINE#         101
  C:0401H         LINE#         102
  -------         ENDPROC       ACK_I2C
  -------         PROC          _WRITE_BYTE
  D:002BH         SYMBOL        addr
  D:002CH         SYMBOL        write_data
  C:0202H         LINE#         105
  C:0206H         LINE#         106
  C:0206H         LINE#         107
  C:0206H         LINE#         108
  C:0209H         LINE#         109
  C:020CH         LINE#         110
  C:020FH         LINE#         112
  C:0214H         LINE#         113
  C:0217H         LINE#         114
  C:021AH         LINE#         116
  C:021FH         LINE#         117
  C:0222H         LINE#         118
  C:0225H         LINE#         120
  C:0228H         LINE#         121
  C:022BH         LINE#         122
  C:022EH         LINE#         123
  C:0230H         LINE#         124
  -------         ENDPROC       _WRITE_BYTE
BL51 BANKED LINKER/LOCATER V6.22.2.0                                                  02/16/2022  14:01:04  PAGE 8


  -------         PROC          READ_CURRENT
  -------         DO            
  D:001DH         SYMBOL        read_data
  -------         ENDDO         
  C:02F0H         LINE#         126
  C:02F0H         LINE#         127
  C:02F0H         LINE#         129
  C:02F3H         LINE#         130
  C:02F8H         LINE#         131
  C:02FBH         LINE#         132
  C:02FEH         LINE#         133
  C:0303H         LINE#         134
  C:0308H         LINE#         135
  C:030BH         LINE#         136
  C:030DH         LINE#         137
  -------         ENDPROC       READ_CURRENT
  -------         PROC          _READ_RANDOM
  D:001CH         SYMBOL        random_addr
  -------         DO            
  D:0007H         SYMBOL        Tmp
  -------         ENDDO         
  C:0288H         LINE#         139
  C:028AH         LINE#         140
  C:028AH         LINE#         142
  C:028AH         LINE#         143
  C:028DH         LINE#         144
  C:0290H         LINE#         145
  C:0293H         LINE#         146
  C:0298H         LINE#         147
  C:029BH         LINE#         148
  C:029EH         LINE#         149
  C:02A1H         LINE#         150
  C:02A6H         LINE#         151
  C:02A9H         LINE#         153
  C:02ACH         LINE#         154
  -------         ENDPROC       _READ_RANDOM
  -------         PROC          _READ_RANDOMTMP
  D:002DH         SYMBOL        random_addr
  -------         DO            
  D:0007H         SYMBOL        Tmp
  -------         ENDDO         
  C:02CFH         LINE#         157
  C:02D1H         LINE#         158
  C:02D1H         LINE#         160
  C:02D8H         LINE#         161
  C:02D8H         LINE#         162
  C:02DBH         LINE#         163
  C:02DEH         LINE#         164
  C:02E1H         LINE#         165
  C:02E6H         LINE#         166
  C:02E9H         LINE#         167
  C:02ECH         LINE#         168
  C:02EFH         LINE#         169
  C:02EFH         LINE#         170
  -------         ENDPROC       _READ_RANDOMTMP
  -------         PROC          _MODIFYTIME
  D:0004H         SYMBOL        address
BL51 BANKED LINKER/LOCATER V6.22.2.0                                                  02/16/2022  14:01:04  PAGE 9


  D:0007H         SYMBOL        num
  -------         DO            
  D:0005H         SYMBOL        temp
  -------         ENDDO         
  C:030EH         LINE#         172
  C:0312H         LINE#         173
  C:0312H         LINE#         174
  C:0314H         LINE#         175
  C:031FH         LINE#         176
  C:0324H         LINE#         177
  C:0329H         LINE#         178
  -------         ENDPROC       _MODIFYTIME
  -------         ENDMOD        3231

  -------         MODULE        TM1637
  C:0000H         SYMBOL        _ICE_DUMMY_
  D:0080H         PUBLIC        P0
  D:0090H         PUBLIC        P1
  D:00A0H         PUBLIC        P2
  D:00B0H         PUBLIC        P3
  D:00C0H         PUBLIC        P4
  D:00C8H         PUBLIC        P5
  D:00E8H         PUBLIC        P6
  D:00F8H         PUBLIC        P7
  D:00A8H         PUBLIC        IE
  D:00B8H         PUBLIC        IP
  C:03D7H         PUBLIC        _Tm1636_set_segbit
  D:00D8H         PUBLIC        CCON
  D:0098H         PUBLIC        SCON
  D:0088H         PUBLIC        TCON
  C:032AH         PUBLIC        _display_1seg
  C:01D1H         PUBLIC        _display_4seg
  C:040EH         PUBLIC        I2CStart
  B:0090H.5       PUBLIC        CLK
  B:0090H.4       PUBLIC        DIO
  C:03C7H         PUBLIC        I2CAsk
  C:025EH         PUBLIC        _I2CWriteByte
  C:03B5H         PUBLIC        I2CStop
  C:0418H         PUBLIC        _Tm1636_display
  C:0377H         PUBLIC        _Tm1636_discon
  D:00D0H         PUBLIC        PSW
  C:035FH         PUBLIC        _Tm1636_write_display
  -------         PROC          I2CSTART
  C:040EH         LINE#         4
  C:040EH         LINE#         5
  C:040EH         LINE#         6
  C:0410H         LINE#         7
  C:0412H         LINE#         8
  C:0415H         LINE#         9
  C:0417H         LINE#         10
  -------         ENDPROC       I2CSTART
  -------         PROC          I2CASK
  C:03C7H         LINE#         11
  C:03C7H         LINE#         12
  C:03C7H         LINE#         13
  C:03C9H         LINE#         14
  C:03CCH         LINE#         15
BL51 BANKED LINKER/LOCATER V6.22.2.0                                                  02/16/2022  14:01:04  PAGE 10


  C:03CFH         LINE#         16
  C:03D1H         LINE#         17
  C:03D4H         LINE#         18
  C:03D6H         LINE#         19
  -------         ENDPROC       I2CASK
  -------         PROC          I2CSTOP
  C:03B5H         LINE#         20
  C:03B5H         LINE#         21
  C:03B5H         LINE#         22
  C:03B7H         LINE#         23
  C:03BAH         LINE#         24
  C:03BCH         LINE#         25
  C:03BFH         LINE#         26
  C:03C1H         LINE#         27
  C:03C4H         LINE#         28
  C:03C6H         LINE#         29
  -------         ENDPROC       I2CSTOP
  -------         PROC          _I2CWRITEBYTE
  D:001AH         SYMBOL        dat
  -------         DO            
  D:001BH         SYMBOL        i
  -------         ENDDO         
  C:025EH         LINE#         30
  C:0260H         LINE#         31
  C:0260H         LINE#         33
  C:0263H         LINE#         34
  C:0263H         LINE#         35
  C:0265H         LINE#         36
  C:026AH         LINE#         37
  C:026AH         LINE#         38
  C:026CH         LINE#         39
  C:026EH         LINE#         41
  C:026EH         LINE#         42
  C:0270H         LINE#         43
  C:0270H         LINE#         44
  C:0273H         LINE#         45
  C:0279H         LINE#         46
  C:027BH         LINE#         47
  C:027EH         LINE#         48
  C:0287H         LINE#         49
  -------         ENDPROC       _I2CWRITEBYTE
  -------         PROC          _TM1636_WRITE_DISPLAY
  D:0019H         SYMBOL        mode
  C:035FH         LINE#         50
  C:0361H         LINE#         51
  C:0361H         LINE#         52
  C:0364H         LINE#         53
  C:036CH         LINE#         54
  C:0371H         LINE#         55
  C:0374H         LINE#         56
  -------         ENDPROC       _TM1636_WRITE_DISPLAY
  -------         PROC          _TM1636_SET_SEGBIT
  D:0019H         SYMBOL        addr
  C:03D7H         LINE#         58
  C:03D9H         LINE#         59
  C:03D9H         LINE#         60
  C:03DCH         LINE#         61
BL51 BANKED LINKER/LOCATER V6.22.2.0                                                  02/16/2022  14:01:04  PAGE 11


  C:03E4H         LINE#         62
  -------         ENDPROC       _TM1636_SET_SEGBIT
  -------         PROC          _TM1636_DISPLAY
  D:0006H         SYMBOL        num
  C:0418H         LINE#         64
  C:0418H         LINE#         65
  C:0418H         LINE#         66
  C:041BH         LINE#         67
  -------         ENDPROC       _TM1636_DISPLAY
  -------         PROC          _TM1636_DISCON
  D:0019H         SYMBOL        light
  C:0377H         LINE#         69
  C:0379H         LINE#         70
  C:0379H         LINE#         71
  C:037CH         LINE#         72
  C:037FH         LINE#         73
  C:0387H         LINE#         74
  C:038AH         LINE#         75
  -------         ENDPROC       _TM1636_DISCON
  -------         PROC          _DISPLAY_4SEG
  D:0014H         SYMBOL        G1
  D:0015H         SYMBOL        G2
  D:0016H         SYMBOL        G3
  D:0017H         SYMBOL        G4
  D:0018H         SYMBOL        light
  C:01D1H         LINE#         77
  C:01D7H         LINE#         78
  C:01D7H         LINE#         79
  C:01DCH         LINE#         80
  C:01E1H         LINE#         81
  C:01E8H         LINE#         82
  C:01EFH         LINE#         83
  C:01F6H         LINE#         84
  C:01FDH         LINE#         85
  -------         ENDPROC       _DISPLAY_4SEG
  -------         PROC          _DISPLAY_1SEG
  D:0028H         SYMBOL        seg_num
  D:0029H         SYMBOL        segbit
  D:002AH         SYMBOL        light
  C:032AH         LINE#         87
  C:0330H         LINE#         88
  C:0330H         LINE#         89
  C:0335H         LINE#         90
  C:033AH         LINE#         91
  C:0341H         LINE#         92
  -------         ENDPROC       _DISPLAY_1SEG
  -------         ENDMOD        TM1637

  -------         MODULE        DELAY
  C:0000H         SYMBOL        _ICE_DUMMY_
  C:041EH         PUBLIC        Delay2us
  C:042AH         PUBLIC        Delay3us
  C:0424H         PUBLIC        Delay5us
  -------         PROC          DELAY2US
  -------         DO            
  D:0007H         SYMBOL        i
  -------         ENDDO         
BL51 BANKED LINKER/LOCATER V6.22.2.0                                                  02/16/2022  14:01:04  PAGE 12


  C:041EH         LINE#         4
  C:041EH         LINE#         5
  C:041EH         LINE#         7
  C:041FH         LINE#         8
  C:0421H         LINE#         9
  C:0423H         LINE#         10
  -------         ENDPROC       DELAY2US
  -------         PROC          DELAY3US
  -------         DO            
  D:0007H         SYMBOL        i
  -------         ENDDO         
  C:042AH         LINE#         11
  C:042AH         LINE#         12
  C:042AH         LINE#         14
  C:042CH         LINE#         15
  C:042EH         LINE#         16
  -------         ENDPROC       DELAY3US
  -------         PROC          DELAY5US
  -------         DO            
  D:0007H         SYMBOL        i
  -------         ENDDO         
  C:0424H         LINE#         17
  C:0424H         LINE#         18
  C:0424H         LINE#         20
  C:0425H         LINE#         21
  C:0427H         LINE#         22
  C:0429H         LINE#         23
  -------         ENDPROC       DELAY5US
  -------         ENDMOD        DELAY

  -------         MODULE        ?C?SCDIV
  C:02ADH         PUBLIC        ?C?SCDIV
  -------         ENDMOD        ?C?SCDIV

*** WARNING L16: UNCALLED SEGMENT, IGNORED FOR OVERLAY PROCESS
    SEGMENT: ?PR?_READ_RANDOMTMP?3231

*** WARNING L16: UNCALLED SEGMENT, IGNORED FOR OVERLAY PROCESS
    SEGMENT: ?PR?_MODIFYTIME?3231

*** WARNING L16: UNCALLED SEGMENT, IGNORED FOR OVERLAY PROCESS
    SEGMENT: ?PR?_DISPLAY_1SEG?TM1637

Program Size: data=46.2 xdata=0 code=1070
LINK/LOCATE RUN COMPLETE.  3 WARNING(S),  0 ERROR(S)
